target datalayout = "e-m:e-p270:32:32-p271:32:32-p272:64:64-i64:64-i128:128-f80:128-n8:16:32:64-S128"
target triple = "x86_64-pc-linux-gnu"

%struct.h5tool_format_t = type { i8, ptr, ptr, ptr, ptr, ptr, ptr, ptr, ptr, ptr, ptr, ptr, ptr, ptr, ptr, ptr, ptr, ptr, i32, i32, i32, ptr, ptr, ptr, i32, ptr, ptr, ptr, ptr, ptr, ptr, ptr, ptr, ptr, ptr, ptr, ptr, ptr, ptr, ptr, ptr, i32, i64, ptr, ptr, ptr, ptr, ptr, i32, ptr, i32, i32, ptr, i32, ptr, ptr, ptr, ptr, i32, i32 }
%struct.dump_opt_t = type { i32, i32, i32, i32, i32, i32, i32, i32, i32, i32, i32, i32, i32, i32, i32, i32, i32 }
%struct.h5tools_context_t = type { i64, i64, i32, i32, [32 x i64], [32 x i64], i32, i64, i32, i64, i32, i32, [32 x i64], [32 x i64], i64, ptr, ptr, i32, i32 }

@h5tools_dataformat = external global %struct.h5tool_format_t, align 8
@dump_indent = external global i32, align 4
@type_table = external global ptr, align 8
@h5dump_type_table = external global ptr, align 8
@rawoutstream = external global ptr, align 8
@dump_opts = external global %struct.dump_opt_t, align 4
@oid_output = external global i32, align 4
@data_output = external global i32, align 4
@attr_data_output = external global i32, align 4
@fp_format = external global ptr, align 8
@fp_lformat = external global ptr, align 8
@complex_format = external global ptr, align 8
@h5tools_nCols = external global i32, align 4

; Function Attrs: nounwind uwtable
define dso_local i32 @dump_attr_cb(i64 noundef %0, ptr noundef %1, ptr noundef %2, ptr noundef %3) #0 {
  %5 = alloca i64, align 8
  %6 = alloca ptr, align 8
  %7 = alloca ptr, align 8
  %8 = alloca ptr, align 8
  %9 = alloca %struct.h5tools_context_t, align 8
  %10 = alloca ptr, align 8
  %11 = alloca %struct.h5tool_format_t, align 8
  %12 = alloca i64, align 8
  %13 = alloca i32, align 4
  store i64 %0, ptr %5, align 8, !tbaa !4
  store ptr %1, ptr %6, align 8, !tbaa !22
  store ptr %2, ptr %7, align 8, !tbaa !24
  store ptr %3, ptr %8, align 8, !tbaa !24
  call void @llvm.lifetime.start.p0(i64 1120, ptr %9) #10
  call void @llvm.lifetime.start.p0(i64 8, ptr %10) #10
  store ptr @h5tools_dataformat, ptr %10, align 8, !tbaa !8
  call void @llvm.lifetime.start.p0(i64 456, ptr %11) #10
  call void @llvm.lifetime.start.p0(i64 8, ptr %12) #10
  call void @llvm.lifetime.start.p0(i64 4, ptr %13) #10
  store i32 0, ptr %13, align 4, !tbaa !11
  call void @llvm.memset.p0.i64(ptr align 8 %9, i8 0, i64 1120, i1 false)
  %14 = load i32, ptr @dump_indent, align 4, !tbaa !11
  %15 = udiv i32 %14, 3
  %16 = getelementptr inbounds nuw %struct.h5tools_context_t, ptr %9, i32 0, i32 10
  store i32 %15, ptr %16, align 8, !tbaa !13
  %17 = load i32, ptr @dump_indent, align 4, !tbaa !11
  %18 = zext i32 %17 to i64
  %19 = getelementptr inbounds nuw %struct.h5tools_context_t, ptr %9, i32 0, i32 0
  store i64 %18, ptr %19, align 8, !tbaa !17
  %20 = load i32, ptr getelementptr inbounds nuw (%struct.dump_opt_t, ptr @dump_opts, i32 0, i32 9), align 4, !tbaa !25
  %21 = getelementptr inbounds nuw %struct.h5tools_context_t, ptr %9, i32 0, i32 17
  store i32 %20, ptr %21, align 8, !tbaa !27
  %22 = load i32, ptr getelementptr inbounds nuw (%struct.dump_opt_t, ptr @dump_opts, i32 0, i32 4), align 4, !tbaa !28
  %23 = getelementptr inbounds nuw %struct.h5tools_context_t, ptr %9, i32 0, i32 18
  store i32 %22, ptr %23, align 4, !tbaa !29
  %24 = load i64, ptr %5, align 8, !tbaa !4
  %25 = load ptr, ptr %6, align 8, !tbaa !22
  %26 = call i64 @H5Aopen(i64 noundef %24, ptr noundef %25, i64 noundef 0)
  store i64 %26, ptr %12, align 8, !tbaa !4
  %27 = load i32, ptr getelementptr inbounds nuw (%struct.dump_opt_t, ptr @dump_opts, i32 0, i32 1), align 4, !tbaa !30
  store i32 %27, ptr @oid_output, align 4, !tbaa !11
  %28 = load i32, ptr getelementptr inbounds nuw (%struct.dump_opt_t, ptr @dump_opts, i32 0, i32 2), align 4, !tbaa !31
  store i32 %28, ptr @data_output, align 4, !tbaa !11
  %29 = load i32, ptr getelementptr inbounds nuw (%struct.dump_opt_t, ptr @dump_opts, i32 0, i32 3), align 4, !tbaa !32
  store i32 %29, ptr @attr_data_output, align 4, !tbaa !11
  %30 = load ptr, ptr %10, align 8, !tbaa !8
  call void @llvm.memcpy.p0.p0.i64(ptr align 8 %11, ptr align 8 %30, i64 456, i1 false), !tbaa.struct !33
  %31 = load ptr, ptr @fp_format, align 8, !tbaa !22
  %32 = icmp ne ptr %31, null
  br i1 %32, label %33, label %38

33:                                               ; preds = %4
  %34 = load ptr, ptr @fp_format, align 8, !tbaa !22
  %35 = getelementptr inbounds nuw %struct.h5tool_format_t, ptr %11, i32 0, i32 13
  store ptr %34, ptr %35, align 8, !tbaa !37
  %36 = load ptr, ptr @fp_format, align 8, !tbaa !22
  %37 = getelementptr inbounds nuw %struct.h5tool_format_t, ptr %11, i32 0, i32 12
  store ptr %36, ptr %37, align 8, !tbaa !39
  br label %38

38:                                               ; preds = %33, %4
  %39 = load ptr, ptr @fp_lformat, align 8, !tbaa !22
  %40 = icmp ne ptr %39, null
  br i1 %40, label %41, label %44

41:                                               ; preds = %38
  %42 = load ptr, ptr @fp_lformat, align 8, !tbaa !22
  %43 = getelementptr inbounds nuw %struct.h5tool_format_t, ptr %11, i32 0, i32 14
  store ptr %42, ptr %43, align 8, !tbaa !40
  br label %44

44:                                               ; preds = %41, %38
  %45 = load ptr, ptr @complex_format, align 8, !tbaa !22
  %46 = icmp ne ptr %45, null
  br i1 %46, label %47, label %52

47:                                               ; preds = %44
  %48 = load ptr, ptr @complex_format, align 8, !tbaa !22
  %49 = getelementptr inbounds nuw %struct.h5tool_format_t, ptr %11, i32 0, i32 16
  store ptr %48, ptr %49, align 8, !tbaa !41
  %50 = load ptr, ptr @complex_format, align 8, !tbaa !22
  %51 = getelementptr inbounds nuw %struct.h5tool_format_t, ptr %11, i32 0, i32 15
  store ptr %50, ptr %51, align 8, !tbaa !42
  br label %52

52:                                               ; preds = %47, %44
  %53 = load i32, ptr @h5tools_nCols, align 4, !tbaa !11
  %54 = icmp eq i32 %53, 0
  br i1 %54, label %55, label %58

55:                                               ; preds = %52
  %56 = getelementptr inbounds nuw %struct.h5tool_format_t, ptr %11, i32 0, i32 41
  store i32 65535, ptr %56, align 8, !tbaa !43
  %57 = getelementptr inbounds nuw %struct.h5tool_format_t, ptr %11, i32 0, i32 42
  store i64 1, ptr %57, align 8, !tbaa !44
  br label %61

58:                                               ; preds = %52
  %59 = load i32, ptr @h5tools_nCols, align 4, !tbaa !11
  %60 = getelementptr inbounds nuw %struct.h5tool_format_t, ptr %11, i32 0, i32 41
  store i32 %59, ptr %60, align 8, !tbaa !43
  br label %61

61:                                               ; preds = %58, %55
  %62 = load i32, ptr getelementptr inbounds nuw (%struct.dump_opt_t, ptr @dump_opts, i32 0, i32 10), align 4, !tbaa !45
  %63 = getelementptr inbounds nuw %struct.h5tool_format_t, ptr %11, i32 0, i32 59
  store i32 %62, ptr %63, align 4, !tbaa !46
  store ptr %11, ptr %10, align 8, !tbaa !8
  %64 = load ptr, ptr @type_table, align 8, !tbaa !18
  store ptr %64, ptr @h5dump_type_table, align 8, !tbaa !18
  %65 = load ptr, ptr @rawoutstream, align 8, !tbaa !20
  %66 = load ptr, ptr %10, align 8, !tbaa !8
  %67 = load ptr, ptr %6, align 8, !tbaa !22
  %68 = load i64, ptr %12, align 8, !tbaa !4
  call void @h5tools_dump_attribute(ptr noundef %65, ptr noundef %66, ptr noundef %9, ptr noundef %67, i64 noundef %68)
  store ptr null, ptr @h5dump_type_table, align 8, !tbaa !18
  %69 = load i64, ptr %12, align 8, !tbaa !4
  %70 = icmp slt i64 %69, 0
  br i1 %70, label %71, label %72

71:                                               ; preds = %61
  call void @h5tools_setstatus(i32 noundef 1)
  store i32 -1, ptr %13, align 4, !tbaa !11
  br label %72

72:                                               ; preds = %71, %61
  %73 = load i32, ptr %13, align 4, !tbaa !11
  call void @llvm.lifetime.end.p0(i64 4, ptr %13) #10
  call void @llvm.lifetime.end.p0(i64 8, ptr %12) #10
  call void @llvm.lifetime.end.p0(i64 456, ptr %11) #10
  call void @llvm.lifetime.end.p0(i64 8, ptr %10) #10
  call void @llvm.lifetime.end.p0(i64 1120, ptr %9) #10
  ret i32 %73
}