; Function Attrs: nounwind uwtable
define dso_local range(i32 -1, 1) i32 @dump_attr_cb(i64 noundef %0, ptr noundef %1, ptr readnone captures(none) %2, ptr readnone captures(none) %3) #0 {
  %5 = alloca %struct.h5tools_context_t, align 8
  %6 = alloca %struct.h5tool_format_t, align 8
  call void @llvm.lifetime.start.p0(i64 1120, ptr nonnull %5) #15
  call void @llvm.lifetime.start.p0(i64 456, ptr nonnull %6) #15
  %7 = getelementptr inbounds nuw i8, ptr %5, i64 8
  call void @llvm.memset.p0.i64(ptr noundef nonnull align 8 dereferenceable(1120) %7, i8 0, i64 1104, i1 false)
  %8 = load i32, ptr @dump_indent, align 4, !tbaa !4
  %9 = udiv i32 %8, 3
  %10 = getelementptr inbounds nuw i8, ptr %5, i64 568
  store i32 %9, ptr %10, align 8, !tbaa !8
  %11 = zext i32 %8 to i64
  store i64 %11, ptr %5, align 8, !tbaa !14
  %12 = load i32, ptr getelementptr inbounds nuw (i8, ptr @dump_opts, i64 36), align 4, !tbaa !19
  %13 = getelementptr inbounds nuw i8, ptr %5, i64 1112
  store i32 %12, ptr %13, align 8, !tbaa !21
  %14 = load i32, ptr getelementptr inbounds nuw (i8, ptr @dump_opts, i64 16), align 4, !tbaa !22
  %15 = getelementptr inbounds nuw i8, ptr %5, i64 1116
  store i32 %14, ptr %15, align 4, !tbaa !23
  %16 = tail call i64 @H5Aopen(i64 noundef %0, ptr noundef %1, i64 noundef 0) #15
  %17 = load i32, ptr getelementptr inbounds nuw (i8, ptr @dump_opts, i64 4), align 4, !tbaa !24
  store i32 %17, ptr @oid_output, align 4, !tbaa !4
  %18 = load i32, ptr getelementptr inbounds nuw (i8, ptr @dump_opts, i64 8), align 4, !tbaa !25
  store i32 %18, ptr @data_output, align 4, !tbaa !4
  %19 = load i32, ptr getelementptr inbounds nuw (i8, ptr @dump_opts, i64 12), align 4, !tbaa !26
  store i32 %19, ptr @attr_data_output, align 4, !tbaa !4
  call void @llvm.memcpy.p0.p0.i64(ptr noundef nonnull align 8 dereferenceable(456) %6, ptr noundef nonnull align 8 dereferenceable(456) @h5tools_dataformat, i64 456, i1 false), !tbaa.struct !27
  %20 = load ptr, ptr @fp_format, align 8, !tbaa !30
  %.not = icmp eq ptr %20, null
  br i1 %.not, label %24, label %21

21:                                               ; preds = %4
  %22 = getelementptr inbounds nuw i8, ptr %6, i64 104
  store ptr %20, ptr %22, align 8, !tbaa !34
  %23 = getelementptr inbounds nuw i8, ptr %6, i64 96
  store ptr %20, ptr %23, align 8, !tbaa !36
  br label %24

24:                                               ; preds = %21, %4
  %25 = load ptr, ptr @fp_lformat, align 8, !tbaa !30
  %.not11 = icmp eq ptr %25, null
  br i1 %.not11, label %28, label %26

26:                                               ; preds = %24
  %27 = getelementptr inbounds nuw i8, ptr %6, i64 112
  store ptr %25, ptr %27, align 8, !tbaa !37
  br label %28

28:                                               ; preds = %26, %24
  %29 = load ptr, ptr @complex_format, align 8, !tbaa !30
  %.not12 = icmp eq ptr %29, null
  br i1 %.not12, label %33, label %30

30:                                               ; preds = %28
  %31 = getelementptr inbounds nuw i8, ptr %6, i64 128
  store ptr %29, ptr %31, align 8, !tbaa !38
  %32 = getelementptr inbounds nuw i8, ptr %6, i64 120
  store ptr %29, ptr %32, align 8, !tbaa !39
  br label %33

33:                                               ; preds = %30, %28
  %34 = load i32, ptr @h5tools_nCols, align 4, !tbaa !4
  %35 = icmp eq i32 %34, 0
  br i1 %35, label %36, label %38

36:                                               ; preds = %33
  %37 = getelementptr inbounds nuw i8, ptr %6, i64 328
  store i64 1, ptr %37, align 8, !tbaa !40
  br label %38

38:                                               ; preds = %33, %36
  %.sink = phi i32 [ 65535, %36 ], [ %34, %33 ]
  %39 = getelementptr inbounds nuw i8, ptr %6, i64 320
  store i32 %.sink, ptr %39, align 8, !tbaa !41
  %40 = load i32, ptr getelementptr inbounds nuw (i8, ptr @dump_opts, i64 40), align 4, !tbaa !42
  %41 = getelementptr inbounds nuw i8, ptr %6, i64 452
  store i32 %40, ptr %41, align 4, !tbaa !43
  %42 = load ptr, ptr @type_table, align 8, !tbaa !15
  store ptr %42, ptr @h5dump_type_table, align 8, !tbaa !15
  %43 = load ptr, ptr @rawoutstream, align 8, !tbaa !17
  call void @h5tools_dump_attribute(ptr noundef %43, ptr noundef nonnull %6, ptr noundef nonnull %5, ptr noundef %1, i64 noundef %16) #15
  store ptr null, ptr @h5dump_type_table, align 8, !tbaa !15
  %44 = icmp slt i64 %16, 0
  br i1 %44, label %45, label %46

45:                                               ; preds = %38
  call void @h5tools_setstatus(i32 noundef 1) #15
  br label %46

46:                                               ; preds = %45, %38
  %.0 = phi i32 [ -1, %45 ], [ 0, %38 ]
  call void @llvm.lifetime.end.p0(i64 456, ptr nonnull %6) #15
  call void @llvm.lifetime.end.p0(i64 1120, ptr nonnull %5) #15
  ret i32 %.0
}